target datalayout = "e-m:e-p270:32:32-p271:32:32-p272:64:64-i64:64-i128:128-f80:128-n8:16:32:64-S128"
target triple = "x86_64-pc-linux-gnu"

%"class.Luau::DenseHashMap.47" = type { %"class.Luau::detail::DenseHashTable.48" }
%"class.Luau::detail::DenseHashTable.48" = type <{ ptr, i64, i64, ptr, [8 x i8] }>
%"class.Luau::DenseHashMap.50" = type { %"class.Luau::detail::DenseHashTable.51" }
%"class.Luau::detail::DenseHashTable.51" = type <{ ptr, i64, i64, ptr, [8 x i8] }>
%"struct.Luau::SubtypingEnvironment" = type { ptr, %"class.Luau::DenseHashMap.59", %"class.Luau::DenseHashMap.50", %"class.Luau::DenseHashMap.47", %"class.Luau::DenseHashMap.62" }
%"class.Luau::DenseHashMap.59" = type { %"class.Luau::detail::DenseHashTable.60" }
%"class.Luau::detail::DenseHashTable.60" = type <{ ptr, i64, i64, ptr, [8 x i8] }>
%"class.Luau::DenseHashMap.62" = type { %"class.Luau::detail::DenseHashTable.63" }
%"class.Luau::detail::DenseHashTable.63" = type <{ ptr, i64, i64, %"struct.std::pair", [8 x i8] }>
%"struct.std::pair" = type { ptr, ptr }
%"struct.std::pair.493" = type { ptr, ptr }

; Function Attrs: mustprogress nounwind uwtable
define linkonce_odr dso_local noundef nonnull align 8 dereferenceable(8) ptr @_ZN4Luau6detail16ItemInterfaceMapIPKNS_11TypePackVarES4_E6getKeyERKSt4pairIS4_S4_E(ptr noundef nonnull align 8 dereferenceable(16) %0) #2 comdat align 2 {
  %2 = alloca ptr, align 8
  store ptr %0, ptr %2, align 8, !tbaa !150
  %3 = load ptr, ptr %2, align 8, !tbaa !150
  %4 = getelementptr inbounds nuw %"struct.std::pair.493", ptr %3, i32 0, i32 0
  ret ptr %4
}

; Function Attrs: mustprogress nounwind uwtable
define linkonce_odr dso_local noundef i64 @_ZNK4Luau16DenseHashPointerclEPKv(ptr noundef nonnull align 1 dereferenceable(1) %0, ptr noundef %1) #2 comdat align 2 {
  %3 = alloca ptr, align 8
  %4 = alloca ptr, align 8
  store ptr %0, ptr %3, align 8, !tbaa !1507
  store ptr %1, ptr %4, align 8, !tbaa !69
  %5 = load ptr, ptr %4, align 8, !tbaa !69
  %6 = ptrtoint ptr %5 to i64
  %7 = lshr i64 %6, 4
  %8 = load ptr, ptr %4, align 8, !tbaa !69
  %9 = ptrtoint ptr %8 to i64
  %10 = lshr i64 %9, 9
  %11 = xor i64 %7, %10
  ret i64 %11
}

; Function Attrs: mustprogress nounwind uwtable
define linkonce_odr dso_local noundef zeroext i1 @_ZNKSt8equal_toIPKN4Luau11TypePackVarEEclERKS3_S6_(ptr noundef nonnull align 1 dereferenceable(1) %0, ptr noundef nonnull align 8 dereferenceable(8) %1, ptr noundef nonnull align 8 dereferenceable(8) %2) #2 comdat align 2 {
  %4 = alloca ptr, align 8
  %5 = alloca ptr, align 8
  %6 = alloca ptr, align 8
  store ptr %0, ptr %4, align 8, !tbaa !1513
  store ptr %1, ptr %5, align 8, !tbaa !145
  store ptr %2, ptr %6, align 8, !tbaa !145
  %7 = load ptr, ptr %5, align 8, !tbaa !145
  %8 = load ptr, ptr %7, align 8, !tbaa !142
  %9 = load ptr, ptr %6, align 8, !tbaa !145
  %10 = load ptr, ptr %9, align 8, !tbaa !142
  %11 = icmp eq ptr %8, %10
  ret i1 %11
}

; Function Attrs: mustprogress uwtable
define linkonce_odr dso_local noundef ptr @_ZNK4Luau6detail14DenseHashTableIPKNS_11TypePackVarESt4pairIS4_S4_ES5_IKS4_S4_ENS0_16ItemInterfaceMapIS4_S4_EENS_16DenseHashPointerESt8equal_toIS4_EE4findERS7_(ptr noundef nonnull align 8 dereferenceable(34) %0, ptr noundef nonnull align 8 dereferenceable(8) %1) #6 comdat align 2 {
  %3 = alloca ptr, align 8
  %4 = alloca ptr, align 8
  %5 = alloca ptr, align 8
  %6 = alloca i64, align 8
  %7 = alloca i64, align 8
  %8 = alloca i64, align 8
  %9 = alloca i32, align 4
  %10 = alloca ptr, align 8
  store ptr %0, ptr %4, align 8, !tbaa !1005
  store ptr %1, ptr %5, align 8, !tbaa !145
  %11 = load ptr, ptr %4, align 8
  %12 = getelementptr inbounds nuw %"class.Luau::detail::DenseHashTable.51", ptr %11, i32 0, i32 2
  %13 = load i64, ptr %12, align 8, !tbaa !1107
  %14 = icmp eq i64 %13, 0
  br i1 %14, label %15, label %16

15:                                               ; preds = %2
  store ptr null, ptr %3, align 8
  br label %73

16:                                               ; preds = %2
  %17 = getelementptr inbounds i8, ptr %11, i64 33
  %18 = load ptr, ptr %5, align 8, !tbaa !145
  %19 = getelementptr inbounds nuw %"class.Luau::detail::DenseHashTable.51", ptr %11, i32 0, i32 3
  %20 = call noundef zeroext i1 @_ZNKSt8equal_toIPKN4Luau11TypePackVarEEclERKS3_S6_(ptr noundef nonnull align 1 dereferenceable(1) %17, ptr noundef nonnull align 8 dereferenceable(8) %18, ptr noundef nonnull align 8 dereferenceable(8) %19)
  br i1 %20, label %21, label %22

21:                                               ; preds = %16
  store ptr null, ptr %3, align 8
  br label %73

22:                                               ; preds = %16
  call void @llvm.lifetime.start.p0(i64 8, ptr %6) #4
  %23 = getelementptr inbounds nuw %"class.Luau::detail::DenseHashTable.51", ptr %11, i32 0, i32 1
  %24 = load i64, ptr %23, align 8, !tbaa !1008
  %25 = sub i64 %24, 1
  store i64 %25, ptr %6, align 8, !tbaa !57
  call void @llvm.lifetime.start.p0(i64 8, ptr %7) #4
  %26 = getelementptr inbounds i8, ptr %11, i64 32
  %27 = load ptr, ptr %5, align 8, !tbaa !145
  %28 = load ptr, ptr %27, align 8, !tbaa !142
  %29 = call noundef i64 @_ZNK4Luau16DenseHashPointerclEPKv(ptr noundef nonnull align 1 dereferenceable(1) %26, ptr noundef %28)
  %30 = load i64, ptr %6, align 8, !tbaa !57
  %31 = and i64 %29, %30
  store i64 %31, ptr %7, align 8, !tbaa !57
  call void @llvm.lifetime.start.p0(i64 8, ptr %8) #4
  store i64 0, ptr %8, align 8, !tbaa !57
  br label %32

32:                                               ; preds = %66, %22
  %33 = load i64, ptr %8, align 8, !tbaa !57
  %34 = load i64, ptr %6, align 8, !tbaa !57
  %35 = icmp ule i64 %33, %34
  br i1 %35, label %37, label %36

36:                                               ; preds = %32
  store i32 2, ptr %9, align 4
  br label %69

37:                                               ; preds = %32
  call void @llvm.lifetime.start.p0(i64 8, ptr %10) #4
  %38 = getelementptr inbounds nuw %"class.Luau::detail::DenseHashTable.51", ptr %11, i32 0, i32 0
  %39 = load ptr, ptr %38, align 8, !tbaa !1007
  %40 = load i64, ptr %7, align 8, !tbaa !57
  %41 = getelementptr inbounds nuw %"struct.std::pair.493", ptr %39, i64 %40
  store ptr %41, ptr %10, align 8, !tbaa !150
  %42 = getelementptr inbounds i8, ptr %11, i64 33
  %43 = load ptr, ptr %10, align 8, !tbaa !150
  %44 = call noundef nonnull align 8 dereferenceable(8) ptr @_ZN4Luau6detail16ItemInterfaceMapIPKNS_11TypePackVarES4_E6getKeyERKSt4pairIS4_S4_E(ptr noundef nonnull align 8 dereferenceable(16) %43)
  %45 = load ptr, ptr %5, align 8, !tbaa !145
  %46 = call noundef zeroext i1 @_ZNKSt8equal_toIPKN4Luau11TypePackVarEEclERKS3_S6_(ptr noundef nonnull align 1 dereferenceable(1) %42, ptr noundef nonnull align 8 dereferenceable(8) %44, ptr noundef nonnull align 8 dereferenceable(8) %45)
  br i1 %46, label %47, label %49

47:                                               ; preds = %37
  %48 = load ptr, ptr %10, align 8, !tbaa !150
  store ptr %48, ptr %3, align 8
  store i32 1, ptr %9, align 4
  br label %63

49:                                               ; preds = %37
  %50 = getelementptr inbounds i8, ptr %11, i64 33
  %51 = load ptr, ptr %10, align 8, !tbaa !150
  %52 = call noundef nonnull align 8 dereferenceable(8) ptr @_ZN4Luau6detail16ItemInterfaceMapIPKNS_11TypePackVarES4_E6getKeyERKSt4pairIS4_S4_E(ptr noundef nonnull align 8 dereferenceable(16) %51)
  %53 = getelementptr inbounds nuw %"class.Luau::detail::DenseHashTable.51", ptr %11, i32 0, i32 3
  %54 = call noundef zeroext i1 @_ZNKSt8equal_toIPKN4Luau11TypePackVarEEclERKS3_S6_(ptr noundef nonnull align 1 dereferenceable(1) %50, ptr noundef nonnull align 8 dereferenceable(8) %52, ptr noundef nonnull align 8 dereferenceable(8) %53)
  br i1 %54, label %55, label %56

55:                                               ; preds = %49
  store ptr null, ptr %3, align 8
  store i32 1, ptr %9, align 4
  br label %63

56:                                               ; preds = %49
  %57 = load i64, ptr %7, align 8, !tbaa !57
  %58 = load i64, ptr %8, align 8, !tbaa !57
  %59 = add i64 %57, %58
  %60 = add i64 %59, 1
  %61 = load i64, ptr %6, align 8, !tbaa !57
  %62 = and i64 %60, %61
  store i64 %62, ptr %7, align 8, !tbaa !57
  store i32 0, ptr %9, align 4
  br label %63

63:                                               ; preds = %56, %55, %47
  call void @llvm.lifetime.end.p0(i64 8, ptr %10) #4
  %64 = load i32, ptr %9, align 4
  switch i32 %64, label %69 [
    i32 0, label %65
  ]

65:                                               ; preds = %63
  br label %66

66:                                               ; preds = %65
  %67 = load i64, ptr %8, align 8, !tbaa !57
  %68 = add i64 %67, 1
  store i64 %68, ptr %8, align 8, !tbaa !57
  br label %32, !llvm.loop !1512

69:                                               ; preds = %63, %36
  call void @llvm.lifetime.end.p0(i64 8, ptr %8) #4
  %70 = load i32, ptr %9, align 4
  switch i32 %70, label %72 [
    i32 2, label %71
  ]

71:                                               ; preds = %69
  store ptr null, ptr %3, align 8
  store i32 1, ptr %9, align 4
  br label %72

72:                                               ; preds = %71, %69
  call void @llvm.lifetime.end.p0(i64 8, ptr %7) #4
  call void @llvm.lifetime.end.p0(i64 8, ptr %6) #4
  br label %73

73:                                               ; preds = %72, %21, %15
  %74 = load ptr, ptr %3, align 8
  ret ptr %74
}

; Function Attrs: mustprogress uwtable
define linkonce_odr dso_local noundef ptr @_ZN4Luau12DenseHashMapIPKNS_11TypePackVarES3_NS_16DenseHashPointerESt8equal_toIS3_EE4findERKS3_(ptr noundef nonnull align 8 dereferenceable(40) %0, ptr noundef nonnull align 8 dereferenceable(8) %1) #6 comdat align 2 {
  %3 = alloca ptr, align 8
  %4 = alloca ptr, align 8
  %5 = alloca ptr, align 8
  store ptr %0, ptr %3, align 8, !tbaa !143
  store ptr %1, ptr %4, align 8, !tbaa !145
  %6 = load ptr, ptr %3, align 8
  call void @llvm.lifetime.start.p0(i64 8, ptr %5) #4
  %7 = getelementptr inbounds nuw %"class.Luau::DenseHashMap.50", ptr %6, i32 0, i32 0
  %8 = load ptr, ptr %4, align 8, !tbaa !145
  %9 = call noundef ptr @_ZNK4Luau6detail14DenseHashTableIPKNS_11TypePackVarESt4pairIS4_S4_ES5_IKS4_S4_ENS0_16ItemInterfaceMapIS4_S4_EENS_16DenseHashPointerESt8equal_toIS4_EE4findERS7_(ptr noundef nonnull align 8 dereferenceable(34) %7, ptr noundef nonnull align 8 dereferenceable(8) %8)
  store ptr %9, ptr %5, align 8, !tbaa !150
  %10 = load ptr, ptr %5, align 8, !tbaa !150
  %11 = icmp ne ptr %10, null
  br i1 %11, label %12, label %15

12:                                               ; preds = %2
  %13 = load ptr, ptr %5, align 8, !tbaa !150
  %14 = getelementptr inbounds nuw %"struct.std::pair.493", ptr %13, i32 0, i32 1
  br label %16

15:                                               ; preds = %2
  br label %16

16:                                               ; preds = %15, %12
  %17 = phi ptr [ %14, %12 ], [ null, %15 ]
  call void @llvm.lifetime.end.p0(i64 8, ptr %5) #4
  ret ptr %17
}

; Function Attrs: mustprogress uwtable
define dso_local noundef ptr @_ZN4Luau20SubtypingEnvironment19getMappedPackBoundsEPKNS_11TypePackVarE(ptr noundef nonnull align 8 dereferenceable(176) %0, ptr noundef %1) #6 align 2 {
  %3 = alloca ptr, align 8
  %4 = alloca ptr, align 8
  %5 = alloca ptr, align 8
  %6 = alloca ptr, align 8
  %7 = alloca i32, align 4
  store ptr %0, ptr %4, align 8, !tbaa !94
  store ptr %1, ptr %5, align 8, !tbaa !142
  %8 = load ptr, ptr %4, align 8
  call void @llvm.lifetime.start.p0(i64 8, ptr %6) #4
  %9 = getelementptr inbounds nuw %"struct.Luau::SubtypingEnvironment", ptr %8, i32 0, i32 2
  %10 = call noundef ptr @_ZN4Luau12DenseHashMapIPKNS_11TypePackVarES3_NS_16DenseHashPointerESt8equal_toIS3_EE4findERKS3_(ptr noundef nonnull align 8 dereferenceable(40) %9, ptr noundef nonnull align 8 dereferenceable(8) %5)
  store ptr %10, ptr %6, align 8, !tbaa !145
  %11 = load ptr, ptr %6, align 8, !tbaa !145
  %12 = icmp ne ptr %11, null
  br i1 %12, label %13, label %15

13:                                               ; preds = %2
  %14 = load ptr, ptr %6, align 8, !tbaa !145
  store ptr %14, ptr %3, align 8
  store i32 1, ptr %7, align 4
  br label %16

15:                                               ; preds = %2
  store i32 0, ptr %7, align 4
  br label %16

16:                                               ; preds = %15, %13
  call void @llvm.lifetime.end.p0(i64 8, ptr %6) #4
  %17 = load i32, ptr %7, align 4
  switch i32 %17, label %30 [
    i32 0, label %18
    i32 1, label %28
  ]

18:                                               ; preds = %16
  %19 = getelementptr inbounds nuw %"struct.Luau::SubtypingEnvironment", ptr %8, i32 0, i32 0
  %20 = load ptr, ptr %19, align 8, !tbaa !113
  %21 = icmp ne ptr %20, null
  br i1 %21, label %22, label %27

22:                                               ; preds = %18
  %23 = getelementptr inbounds nuw %"struct.Luau::SubtypingEnvironment", ptr %8, i32 0, i32 0
  %24 = load ptr, ptr %23, align 8, !tbaa !113
  %25 = load ptr, ptr %5, align 8, !tbaa !142
  %26 = call noundef ptr @_ZN4Luau20SubtypingEnvironment19getMappedPackBoundsEPKNS_11TypePackVarE(ptr noundef nonnull align 8 dereferenceable(176) %24, ptr noundef %25)
  store ptr %26, ptr %3, align 8
  br label %28

27:                                               ; preds = %18
  store ptr null, ptr %3, align 8
  br label %28

28:                                               ; preds = %27, %22, %16
  %29 = load ptr, ptr %3, align 8
  ret ptr %29

30:                                               ; preds = %16
  unreachable
}